target datalayout = "e-m:e-p270:32:32-p271:32:32-p272:64:64-i64:64-i128:128-f80:128-n8:16:32:64-S128"
target triple = "x86_64-unknown-linux-gnu"

%"struct.std::atomic.51" = type { %"struct.std::__atomic_base.52" }
%"struct.std::__atomic_base.52" = type { i8 }
%"struct.std::atomic" = type { %"struct.std::__atomic_base" }
%"struct.std::__atomic_base" = type { i64 }
%"class.absl::lts_20230802::Mutex" = type { %"struct.std::atomic" }
%"class.grpc_core::Orphanable" = type { ptr }
%"class.grpc_core::promise_detail::PromiseActivity" = type <{ %"class.grpc_core::promise_detail::FreestandingActivity", %"class.grpc_core::ExecCtxWakeupScheduler::BoundScheduler", i8, %"struct.std::atomic.51", [6 x i8], %"union.grpc_core::promise_detail::PromiseActivity<grpc_core::promise_detail::Loop<grpc_core::promise_detail::Seq<(lambda at /home/dtcxzyw/WorkSpace/Projects/compilers/llvm-opt-benchmark/bench/grpc/grpc/src/core/lib/resource_quota/memory_quota.cc:430:7), (lambda at /home/dtcxzyw/WorkSpace/Projects/compilers/llvm-opt-benchmark/bench/grpc/grpc/src/core/lib/resource_quota/memory_quota.cc:437:7), (lambda at /home/dtcxzyw/WorkSpace/Projects/compilers/llvm-opt-benchmark/bench/grpc/grpc/src/core/lib/resource_quota/memory_quota.cc:450:7), (lambda at /home/dtcxzyw/WorkSpace/Projects/compilers/llvm-opt-benchmark/bench/grpc/grpc/src/core/lib/resource_quota/memory_quota.cc:474:7)>>, grpc_core::ExecCtxWakeupScheduler, (lambda at /home/dtcxzyw/WorkSpace/Projects/compilers/llvm-opt-benchmark/bench/grpc/grpc/src/core/lib/resource_quota/memory_quota.cc:481:20)>::PromiseHolder.base", [7 x i8] }>
%"class.grpc_core::promise_detail::FreestandingActivity" = type { %"class.grpc_core::Activity", %"class.grpc_core::Wakeable", %"class.absl::lts_20230802::Mutex", %"struct.std::atomic.98", i8, ptr }
%"class.grpc_core::Activity" = type { %"class.grpc_core::Orphanable" }
%"class.grpc_core::Wakeable" = type { ptr }
%"struct.std::atomic.98" = type { %"struct.std::__atomic_base.99" }
%"struct.std::__atomic_base.99" = type { i32 }
%"class.grpc_core::ExecCtxWakeupScheduler::BoundScheduler" = type { %struct.grpc_closure }
%struct.grpc_closure = type { %union.anon.100, ptr, ptr, %union.anon.101 }
%union.anon.100 = type { ptr }
%union.anon.101 = type { i64 }
%"union.grpc_core::promise_detail::PromiseActivity<grpc_core::promise_detail::Loop<grpc_core::promise_detail::Seq<(lambda at /home/dtcxzyw/WorkSpace/Projects/compilers/llvm-opt-benchmark/bench/grpc/grpc/src/core/lib/resource_quota/memory_quota.cc:430:7), (lambda at /home/dtcxzyw/WorkSpace/Projects/compilers/llvm-opt-benchmark/bench/grpc/grpc/src/core/lib/resource_quota/memory_quota.cc:437:7), (lambda at /home/dtcxzyw/WorkSpace/Projects/compilers/llvm-opt-benchmark/bench/grpc/grpc/src/core/lib/resource_quota/memory_quota.cc:450:7), (lambda at /home/dtcxzyw/WorkSpace/Projects/compilers/llvm-opt-benchmark/bench/grpc/grpc/src/core/lib/resource_quota/memory_quota.cc:474:7)>>, grpc_core::ExecCtxWakeupScheduler, (lambda at /home/dtcxzyw/WorkSpace/Projects/compilers/llvm-opt-benchmark/bench/grpc/grpc/src/core/lib/resource_quota/memory_quota.cc:481:20)>::PromiseHolder.base" = type { [145 x i8] }

@_ZTVN9grpc_core14promise_detail20FreestandingActivityE = external unnamed_addr constant { [12 x ptr], [6 x ptr] }, align 8
@.str.25 = private unnamed_addr constant [119 x i8] c"generated/home/dtcxzyw/WorkSpace/Projects/compilers/llvm-opt-benchmark/bench/grpc/grpc/src/core/lib/promise/activity.h\00", align 1
@.str.38 = private unnamed_addr constant [6 x i8] c"done_\00", align 1

; Function Attrs: mustprogress nounwind uwtable
define linkonce_odr void @_ZN9grpc_core10OrphanableD2Ev(ptr noundef nonnull align 8 dereferenceable(8) %this) unnamed_addr #4 comdat align 2 {
entry:
  %this.addr = alloca ptr, align 8
  store ptr %this, ptr %this.addr, align 8
  ret void
}

; Function Attrs: mustprogress nounwind uwtable
define linkonce_odr void @_ZN9grpc_core8ActivityD2Ev(ptr noundef nonnull align 8 dereferenceable(8) %this) unnamed_addr #4 comdat align 2 {
entry:
  %this.addr = alloca ptr, align 8
  store ptr %this, ptr %this.addr, align 8
  %this1 = load ptr, ptr %this.addr, align 8
  call void @_ZN9grpc_core10OrphanableD2Ev(ptr noundef nonnull align 8 dereferenceable(8) %this1) #3
  ret void
}

; Function Attrs: mustprogress nounwind uwtable
define linkonce_odr void @_ZN9grpc_core8WakeableD2Ev(ptr noundef nonnull align 8 dereferenceable(8) %this) unnamed_addr #4 comdat align 2 {
entry:
  %this.addr = alloca ptr, align 8
  store ptr %this, ptr %this.addr, align 8
  ret void
}

; Function Attrs: mustprogress nounwind uwtable
define linkonce_odr void @_ZN9grpc_core14promise_detail20FreestandingActivityD2Ev(ptr noundef nonnull align 8 dereferenceable(40) %this) unnamed_addr #4 comdat align 2 personality ptr @__gxx_personality_v0 {
entry:
  %this.addr = alloca ptr, align 8
  store ptr %this, ptr %this.addr, align 8
  %this1 = load ptr, ptr %this.addr, align 8
  store ptr getelementptr inbounds ({ [12 x ptr], [6 x ptr] }, ptr @_ZTVN9grpc_core14promise_detail20FreestandingActivityE, i32 0, i32 0, i32 2), ptr %this1, align 8
  %add.ptr = getelementptr inbounds i8, ptr %this1, i64 8
  store ptr getelementptr inbounds ({ [12 x ptr], [6 x ptr] }, ptr @_ZTVN9grpc_core14promise_detail20FreestandingActivityE, i32 0, i32 1, i32 2), ptr %add.ptr, align 8
  %handle_ = getelementptr inbounds %"class.grpc_core::promise_detail::FreestandingActivity", ptr %this1, i32 0, i32 5
  %0 = load ptr, ptr %handle_, align 8
  %tobool = icmp ne ptr %0, null
  br i1 %tobool, label %if.then, label %if.end

if.then:                                          ; preds = %entry
  invoke void @_ZN9grpc_core14promise_detail20FreestandingActivity10DropHandleEv(ptr noundef nonnull align 8 dereferenceable(40) %this1)
          to label %invoke.cont unwind label %terminate.lpad

invoke.cont:                                      ; preds = %if.then
  br label %if.end

if.end:                                           ; preds = %invoke.cont, %entry
  %mu_ = getelementptr inbounds %"class.grpc_core::promise_detail::FreestandingActivity", ptr %this1, i32 0, i32 2
  call void @_ZN4absl12lts_202308025MutexD1Ev(ptr noundef nonnull align 8 dereferenceable(8) %mu_) #3
  %1 = getelementptr inbounds i8, ptr %this1, i64 8
  call void @_ZN9grpc_core8WakeableD2Ev(ptr noundef nonnull align 8 dereferenceable(8) %1) #3
  call void @_ZN9grpc_core8ActivityD2Ev(ptr noundef nonnull align 8 dereferenceable(8) %this1) #3
  ret void

terminate.lpad:                                   ; preds = %if.then
  %2 = landingpad { ptr, i32 }
          catch ptr null
  %3 = extractvalue { ptr, i32 } %2, 0
  call void @__clang_call_terminate(ptr %3) #22
  unreachable
}

; Function Attrs: mustprogress nounwind uwtable
define internal void @"_ZN9grpc_core14promise_detail15PromiseActivityINS0_4LoopINS0_3SeqIZNS_16BasicMemoryQuota5StartEvE3$_1JZNS4_5StartEvE3$_0ZNS4_5StartEvE3$_2ZNS4_5StartEvE3$_3EEEEENS_22ExecCtxWakeupSchedulerEZNS4_5StartEvE3$_4JEE13PromiseHolderD2Ev"(ptr noundef nonnull align 8 dereferenceable(145) %this) unnamed_addr #4 align 2 {
entry:
  %this.addr = alloca ptr, align 8
  store ptr %this, ptr %this.addr, align 8
  ret void
}

; Function Attrs: mustprogress nounwind uwtable
define internal void @"_ZN9grpc_core14promise_detail15PromiseActivityINS0_4LoopINS0_3SeqIZNS_16BasicMemoryQuota5StartEvE3$_1JZNS4_5StartEvE3$_0ZNS4_5StartEvE3$_2ZNS4_5StartEvE3$_3EEEEENS_22ExecCtxWakeupSchedulerEZNS4_5StartEvE3$_4JEED2Ev"(ptr noundef nonnull align 8 dereferenceable(232) %this) unnamed_addr #4 align 2 personality ptr @__gxx_personality_v0 {
entry:
  %this.addr = alloca ptr, align 8
  store ptr %this, ptr %this.addr, align 8
  %this1 = load ptr, ptr %this.addr, align 8
  br label %do.body

do.body:                                          ; preds = %entry
  %done_ = getelementptr inbounds %"class.grpc_core::promise_detail::PromiseActivity", ptr %this1, i32 0, i32 2
  %0 = load i8, ptr %done_, align 8
  %tobool = trunc i8 %0 to i1
  %lnot = xor i1 %tobool, true
  br i1 %lnot, label %if.then, label %if.end

if.then:                                          ; preds = %do.body
  invoke void @gpr_assertion_failed(ptr noundef @.str.25, i32 noundef 464, ptr noundef @.str.38) #26
          to label %invoke.cont unwind label %terminate.lpad

invoke.cont:                                      ; preds = %if.then
  unreachable

if.end:                                           ; preds = %do.body
  br label %do.cond

do.cond:                                          ; preds = %if.end
  br label %do.end

do.end:                                           ; preds = %do.cond
  %promise_holder_ = getelementptr inbounds %"class.grpc_core::promise_detail::PromiseActivity", ptr %this1, i32 0, i32 5
  call void @"_ZN9grpc_core14promise_detail15PromiseActivityINS0_4LoopINS0_3SeqIZNS_16BasicMemoryQuota5StartEvE3$_1JZNS4_5StartEvE3$_0ZNS4_5StartEvE3$_2ZNS4_5StartEvE3$_3EEEEENS_22ExecCtxWakeupSchedulerEZNS4_5StartEvE3$_4JEE13PromiseHolderD2Ev"(ptr noundef nonnull align 8 dereferenceable(145) %promise_holder_) #3
  call void @_ZN9grpc_core14promise_detail20FreestandingActivityD2Ev(ptr noundef nonnull align 8 dereferenceable(40) %this1) #3
  ret void

terminate.lpad:                                   ; preds = %if.then
  %1 = landingpad { ptr, i32 }
          catch ptr null
  %2 = extractvalue { ptr, i32 } %1, 0
  call void @__clang_call_terminate(ptr %2) #22
  unreachable
}